
kernel4x4.o:     file format elf64-littleriscv


Disassembly of section .text:

0000000000000000 <kernel4x4>:
   0:	7135                	addi	sp,sp,-160
   2:	ed06                	sd	ra,152(sp)
   4:	e922                	sd	s0,144(sp)
   6:	e526                	sd	s1,136(sp)
   8:	e14a                	sd	s2,128(sp)
   a:	fcce                	sd	s3,120(sp)
   c:	f8d2                	sd	s4,112(sp)
   e:	f4d6                	sd	s5,104(sp)
  10:	f0da                	sd	s6,96(sp)
  12:	ecde                	sd	s7,88(sp)
  14:	a8a2                	fsd	fs0,80(sp)
  16:	a4a6                	fsd	fs1,72(sp)
  18:	a0ca                	fsd	fs2,64(sp)
  1a:	bc4e                	fsd	fs3,56(sp)
  1c:	c22026f3          	csrr	a3,vlenb
  20:	068e                	slli	a3,a3,0x3
  22:	40d10133          	sub	sp,sp,a3
  26:	8bb2                	mv	s7,a2
  28:	84ae                	mv	s1,a1
  2a:	892a                	mv	s2,a0
  2c:	05907557          	vsetvli	a0,zero,e64,m2,ta,mu
  30:	5e003457          	vmv.v.i	v8,0
  34:	c2202573          	csrr	a0,vlenb
  38:	4699                	li	a3,6
  3a:	02d50533          	mul	a0,a0,a3
  3e:	950a                	add	a0,a0,sp
  40:	03850513          	addi	a0,a0,56
  44:	22850427          	vs2r.v	v8,(a0)
  48:	02060a13          	addi	s4,a2,32
  4c:	2180                	fld	fs0,0(a1)
  4e:	3184                	fld	fs1,32(a1)
  50:	0405b907          	fld	fs2,64(a1)
  54:	0605b987          	fld	fs3,96(a1)
  58:	04060b13          	addi	s6,a2,64
  5c:	06060a93          	addi	s5,a2,96
  60:	ac22                	fsd	fs0,24(sp)
  62:	65e2                	ld	a1,24(sp)
  64:	00000537          	lui	a0,0x0
  68:	00050993          	mv	s3,a0
  6c:	854e                	mv	a0,s3
  6e:	00000097          	auipc	ra,0x0
  72:	000080e7          	jalr	ra # 6e <kernel4x4+0x6e>
  76:	c5927057          	vsetivli	zero,4,e64,m2,ta,mu
  7a:	02097407          	vle64.v	v8,(s2)
  7e:	01907057          	vsetvli	zero,zero,e64,m2,tu,mu
  82:	c2202573          	csrr	a0,vlenb
  86:	4599                	li	a1,6
  88:	02b50533          	mul	a0,a0,a1
  8c:	950a                	add	a0,a0,sp
  8e:	03850513          	addi	a0,a0,56 # 38 <kernel4x4+0x38>
  92:	22850507          	vl2r.v	v10,(a0)
  96:	9ea0b657          	vmv2r.v	v12,v10
  9a:	b2845657          	vfmacc.vf	v12,fs0,v8
  9e:	1828                	addi	a0,sp,56
  a0:	22850627          	vs2r.v	v12,(a0)
  a4:	9ea0b757          	vmv2r.v	v14,v10
  a8:	b284d757          	vfmacc.vf	v14,fs1,v8
  ac:	c2202573          	csrr	a0,vlenb
  b0:	0506                	slli	a0,a0,0x1
  b2:	950a                	add	a0,a0,sp
  b4:	03850513          	addi	a0,a0,56
  b8:	22850727          	vs2r.v	v14,(a0)
  bc:	9ea0b857          	vmv2r.v	v16,v10
  c0:	b2895857          	vfmacc.vf	v16,fs2,v8
  c4:	c2202573          	csrr	a0,vlenb
  c8:	050a                	slli	a0,a0,0x2
  ca:	950a                	add	a0,a0,sp
  cc:	03850513          	addi	a0,a0,56
  d0:	22850827          	vs2r.v	v16,(a0)
  d4:	b289d557          	vfmacc.vf	v10,fs3,v8
  d8:	c2202573          	csrr	a0,vlenb
  dc:	4599                	li	a1,6
  de:	02b50533          	mul	a0,a0,a1
  e2:	950a                	add	a0,a0,sp
  e4:	03850513          	addi	a0,a0,56
  e8:	22850527          	vs2r.v	v10,(a0)
  ec:	020bf627          	vse64.v	v12,(s7)
  f0:	020a7727          	vse64.v	v14,(s4)
  f4:	020b7827          	vse64.v	v16,(s6)
  f8:	020af527          	vse64.v	v10,(s5)
  fc:	2080                	fld	fs0,0(s1)
  fe:	3084                	fld	fs1,32(s1)
 100:	0404b907          	fld	fs2,64(s1)
 104:	0604b987          	fld	fs3,96(s1)
 108:	02090413          	addi	s0,s2,32
 10c:	b022                	fsd	fs0,32(sp)
 10e:	7582                	ld	a1,32(sp)
 110:	854e                	mv	a0,s3
 112:	00000097          	auipc	ra,0x0
 116:	000080e7          	jalr	ra # 112 <kernel4x4+0x112>
 11a:	c5927057          	vsetivli	zero,4,e64,m2,ta,mu
 11e:	02047407          	vle64.v	v8,(s0)
 122:	01907057          	vsetvli	zero,zero,e64,m2,tu,mu
 126:	1828                	addi	a0,sp,56
 128:	22850507          	vl2r.v	v10,(a0)
 12c:	b2845557          	vfmacc.vf	v10,fs0,v8
 130:	1828                	addi	a0,sp,56
 132:	22850527          	vs2r.v	v10,(a0)
 136:	c2202573          	csrr	a0,vlenb
 13a:	0506                	slli	a0,a0,0x1
 13c:	950a                	add	a0,a0,sp
 13e:	03850513          	addi	a0,a0,56
 142:	22850607          	vl2r.v	v12,(a0)
 146:	b284d657          	vfmacc.vf	v12,fs1,v8
 14a:	c2202573          	csrr	a0,vlenb
 14e:	0506                	slli	a0,a0,0x1
 150:	950a                	add	a0,a0,sp
 152:	03850513          	addi	a0,a0,56
 156:	22850627          	vs2r.v	v12,(a0)
 15a:	c2202573          	csrr	a0,vlenb
 15e:	050a                	slli	a0,a0,0x2
 160:	950a                	add	a0,a0,sp
 162:	03850513          	addi	a0,a0,56
 166:	22850707          	vl2r.v	v14,(a0)
 16a:	b2895757          	vfmacc.vf	v14,fs2,v8
 16e:	c2202573          	csrr	a0,vlenb
 172:	050a                	slli	a0,a0,0x2
 174:	950a                	add	a0,a0,sp
 176:	03850513          	addi	a0,a0,56
 17a:	22850727          	vs2r.v	v14,(a0)
 17e:	c2202573          	csrr	a0,vlenb
 182:	4599                	li	a1,6
 184:	02b50533          	mul	a0,a0,a1
 188:	950a                	add	a0,a0,sp
 18a:	03850513          	addi	a0,a0,56
 18e:	22850807          	vl2r.v	v16,(a0)
 192:	b289d857          	vfmacc.vf	v16,fs3,v8
 196:	c2202573          	csrr	a0,vlenb
 19a:	4599                	li	a1,6
 19c:	02b50533          	mul	a0,a0,a1
 1a0:	950a                	add	a0,a0,sp
 1a2:	03850513          	addi	a0,a0,56
 1a6:	22850827          	vs2r.v	v16,(a0)
 1aa:	020bf527          	vse64.v	v10,(s7)
 1ae:	020a7627          	vse64.v	v12,(s4)
 1b2:	020b7727          	vse64.v	v14,(s6)
 1b6:	020af827          	vse64.v	v16,(s5)
 1ba:	2080                	fld	fs0,0(s1)
 1bc:	3084                	fld	fs1,32(s1)
 1be:	0404b907          	fld	fs2,64(s1)
 1c2:	0604b987          	fld	fs3,96(s1)
 1c6:	04090413          	addi	s0,s2,64
 1ca:	b422                	fsd	fs0,40(sp)
 1cc:	75a2                	ld	a1,40(sp)
 1ce:	854e                	mv	a0,s3
 1d0:	00000097          	auipc	ra,0x0
 1d4:	000080e7          	jalr	ra # 1d0 <kernel4x4+0x1d0>
 1d8:	c5927057          	vsetivli	zero,4,e64,m2,ta,mu
 1dc:	02047407          	vle64.v	v8,(s0)
 1e0:	01907057          	vsetvli	zero,zero,e64,m2,tu,mu
 1e4:	1828                	addi	a0,sp,56
 1e6:	22850507          	vl2r.v	v10,(a0)
 1ea:	b2845557          	vfmacc.vf	v10,fs0,v8
 1ee:	1828                	addi	a0,sp,56
 1f0:	22850527          	vs2r.v	v10,(a0)
 1f4:	c2202573          	csrr	a0,vlenb
 1f8:	0506                	slli	a0,a0,0x1
 1fa:	950a                	add	a0,a0,sp
 1fc:	03850513          	addi	a0,a0,56
 200:	22850607          	vl2r.v	v12,(a0)
 204:	b284d657          	vfmacc.vf	v12,fs1,v8
 208:	c2202573          	csrr	a0,vlenb
 20c:	0506                	slli	a0,a0,0x1
 20e:	950a                	add	a0,a0,sp
 210:	03850513          	addi	a0,a0,56
 214:	22850627          	vs2r.v	v12,(a0)
 218:	c2202573          	csrr	a0,vlenb
 21c:	050a                	slli	a0,a0,0x2
 21e:	950a                	add	a0,a0,sp
 220:	03850513          	addi	a0,a0,56
 224:	22850707          	vl2r.v	v14,(a0)
 228:	b2895757          	vfmacc.vf	v14,fs2,v8
 22c:	c2202573          	csrr	a0,vlenb
 230:	050a                	slli	a0,a0,0x2
 232:	950a                	add	a0,a0,sp
 234:	03850513          	addi	a0,a0,56
 238:	22850727          	vs2r.v	v14,(a0)
 23c:	c2202573          	csrr	a0,vlenb
 240:	4599                	li	a1,6
 242:	02b50533          	mul	a0,a0,a1
 246:	950a                	add	a0,a0,sp
 248:	03850513          	addi	a0,a0,56
 24c:	22850807          	vl2r.v	v16,(a0)
 250:	b289d857          	vfmacc.vf	v16,fs3,v8
 254:	c2202573          	csrr	a0,vlenb
 258:	4599                	li	a1,6
 25a:	02b50533          	mul	a0,a0,a1
 25e:	950a                	add	a0,a0,sp
 260:	03850513          	addi	a0,a0,56
 264:	22850827          	vs2r.v	v16,(a0)
 268:	020bf527          	vse64.v	v10,(s7)
 26c:	020a7627          	vse64.v	v12,(s4)
 270:	020b7727          	vse64.v	v14,(s6)
 274:	020af827          	vse64.v	v16,(s5)
 278:	2080                	fld	fs0,0(s1)
 27a:	3084                	fld	fs1,32(s1)
 27c:	0404b907          	fld	fs2,64(s1)
 280:	0604b987          	fld	fs3,96(s1)
 284:	06090413          	addi	s0,s2,96
 288:	b822                	fsd	fs0,48(sp)
 28a:	75c2                	ld	a1,48(sp)
 28c:	854e                	mv	a0,s3
 28e:	00000097          	auipc	ra,0x0
 292:	000080e7          	jalr	ra # 28e <kernel4x4+0x28e>
 296:	c5927057          	vsetivli	zero,4,e64,m2,ta,mu
 29a:	02047407          	vle64.v	v8,(s0)
 29e:	01907057          	vsetvli	zero,zero,e64,m2,tu,mu
 2a2:	1828                	addi	a0,sp,56
 2a4:	22850507          	vl2r.v	v10,(a0)
 2a8:	b2845557          	vfmacc.vf	v10,fs0,v8
 2ac:	c2202573          	csrr	a0,vlenb
 2b0:	0506                	slli	a0,a0,0x1
 2b2:	950a                	add	a0,a0,sp
 2b4:	03850513          	addi	a0,a0,56
 2b8:	22850607          	vl2r.v	v12,(a0)
 2bc:	b284d657          	vfmacc.vf	v12,fs1,v8
 2c0:	c2202573          	csrr	a0,vlenb
 2c4:	050a                	slli	a0,a0,0x2
 2c6:	950a                	add	a0,a0,sp
 2c8:	03850513          	addi	a0,a0,56
 2cc:	22850707          	vl2r.v	v14,(a0)
 2d0:	b2895757          	vfmacc.vf	v14,fs2,v8
 2d4:	c2202573          	csrr	a0,vlenb
 2d8:	4599                	li	a1,6
 2da:	02b50533          	mul	a0,a0,a1
 2de:	950a                	add	a0,a0,sp
 2e0:	03850513          	addi	a0,a0,56
 2e4:	22850807          	vl2r.v	v16,(a0)
 2e8:	b289d857          	vfmacc.vf	v16,fs3,v8
 2ec:	020bf527          	vse64.v	v10,(s7)
 2f0:	020a7627          	vse64.v	v12,(s4)
 2f4:	020b7727          	vse64.v	v14,(s6)
 2f8:	020af827          	vse64.v	v16,(s5)
 2fc:	c2202573          	csrr	a0,vlenb
 300:	050e                	slli	a0,a0,0x3
 302:	912a                	add	sp,sp,a0
 304:	60ea                	ld	ra,152(sp)
 306:	644a                	ld	s0,144(sp)
 308:	64aa                	ld	s1,136(sp)
 30a:	690a                	ld	s2,128(sp)
 30c:	79e6                	ld	s3,120(sp)
 30e:	7a46                	ld	s4,112(sp)
 310:	7aa6                	ld	s5,104(sp)
 312:	7b06                	ld	s6,96(sp)
 314:	6be6                	ld	s7,88(sp)
 316:	2446                	fld	fs0,80(sp)
 318:	24a6                	fld	fs1,72(sp)
 31a:	2906                	fld	fs2,64(sp)
 31c:	39e2                	fld	fs3,56(sp)
 31e:	610d                	addi	sp,sp,160
 320:	8082                	ret

0000000000000322 <main>:
 322:	711d                	addi	sp,sp,-96
 324:	ec86                	sd	ra,88(sp)
 326:	e8a2                	sd	s0,80(sp)
 328:	e4a6                	sd	s1,72(sp)
 32a:	e0ca                	sd	s2,64(sp)
 32c:	fc4e                	sd	s3,56(sp)
 32e:	f852                	sd	s4,48(sp)
 330:	f456                	sd	s5,40(sp)
 332:	f05a                	sd	s6,32(sp)
 334:	ac22                	fsd	fs0,24(sp)
 336:	c2202573          	csrr	a0,vlenb
 33a:	0506                	slli	a0,a0,0x1
 33c:	40a10133          	sub	sp,sp,a0
 340:	08000513          	li	a0,128
 344:	00000097          	auipc	ra,0x0
 348:	000080e7          	jalr	ra # 344 <main+0x22>
 34c:	842a                	mv	s0,a0
 34e:	05907557          	vsetvli	a0,zero,e64,m2,ta,mu
 352:	5e003457          	vmv.v.i	v8,0
 356:	0828                	addi	a0,sp,24
 358:	22850427          	vs2r.v	v8,(a0)
 35c:	02040993          	addi	s3,s0,32
 360:	04040a13          	addi	s4,s0,64
 364:	06040a93          	addi	s5,s0,96
 368:	00000537          	lui	a0,0x0
 36c:	00050913          	mv	s2,a0
 370:	00801537          	lui	a0,0x801
 374:	02751b13          	slli	s6,a0,0x27
 378:	854a                	mv	a0,s2
 37a:	85da                	mv	a1,s6
 37c:	00000097          	auipc	ra,0x0
 380:	000080e7          	jalr	ra # 37c <main+0x5a>
 384:	00000537          	lui	a0,0x0
 388:	00050493          	mv	s1,a0
 38c:	c5927057          	vsetivli	zero,4,e64,m2,ta,mu
 390:	0204f407          	vle64.v	v8,(s1)
 394:	00000537          	lui	a0,0x0
 398:	00053407          	fld	fs0,0(a0) # 0 <kernel4x4>
 39c:	01907057          	vsetvli	zero,zero,e64,m2,tu,mu
 3a0:	0828                	addi	a0,sp,24
 3a2:	22850507          	vl2r.v	v10,(a0)
 3a6:	b2845557          	vfmacc.vf	v10,fs0,v8
 3aa:	0828                	addi	a0,sp,24
 3ac:	22850527          	vs2r.v	v10,(a0)
 3b0:	02047527          	vse64.v	v10,(s0)
 3b4:	0209f527          	vse64.v	v10,(s3)
 3b8:	020a7527          	vse64.v	v10,(s4)
 3bc:	020af527          	vse64.v	v10,(s5)
 3c0:	854a                	mv	a0,s2
 3c2:	85da                	mv	a1,s6
 3c4:	00000097          	auipc	ra,0x0
 3c8:	000080e7          	jalr	ra # 3c4 <main+0xa2>
 3cc:	02048513          	addi	a0,s1,32
 3d0:	c5927057          	vsetivli	zero,4,e64,m2,ta,mu
 3d4:	02057407          	vle64.v	v8,(a0)
 3d8:	01907057          	vsetvli	zero,zero,e64,m2,tu,mu
 3dc:	0828                	addi	a0,sp,24
 3de:	22850507          	vl2r.v	v10,(a0)
 3e2:	b2845557          	vfmacc.vf	v10,fs0,v8
 3e6:	0828                	addi	a0,sp,24
 3e8:	22850527          	vs2r.v	v10,(a0)
 3ec:	02047527          	vse64.v	v10,(s0)
 3f0:	0209f527          	vse64.v	v10,(s3)
 3f4:	020a7527          	vse64.v	v10,(s4)
 3f8:	020af527          	vse64.v	v10,(s5)
 3fc:	854a                	mv	a0,s2
 3fe:	85da                	mv	a1,s6
 400:	00000097          	auipc	ra,0x0
 404:	000080e7          	jalr	ra # 400 <main+0xde>
 408:	04048513          	addi	a0,s1,64
 40c:	c5927057          	vsetivli	zero,4,e64,m2,ta,mu
 410:	02057407          	vle64.v	v8,(a0)
 414:	01907057          	vsetvli	zero,zero,e64,m2,tu,mu
 418:	0828                	addi	a0,sp,24
 41a:	22850507          	vl2r.v	v10,(a0)
 41e:	b2845557          	vfmacc.vf	v10,fs0,v8
 422:	0828                	addi	a0,sp,24
 424:	22850527          	vs2r.v	v10,(a0)
 428:	02047527          	vse64.v	v10,(s0)
 42c:	0209f527          	vse64.v	v10,(s3)
 430:	020a7527          	vse64.v	v10,(s4)
 434:	020af527          	vse64.v	v10,(s5)
 438:	854a                	mv	a0,s2
 43a:	85da                	mv	a1,s6
 43c:	00000097          	auipc	ra,0x0
 440:	000080e7          	jalr	ra # 43c <main+0x11a>
 444:	06048513          	addi	a0,s1,96
 448:	c5927057          	vsetivli	zero,4,e64,m2,ta,mu
 44c:	02057407          	vle64.v	v8,(a0)
 450:	01907057          	vsetvli	zero,zero,e64,m2,tu,mu
 454:	0828                	addi	a0,sp,24
 456:	22850507          	vl2r.v	v10,(a0)
 45a:	b2845557          	vfmacc.vf	v10,fs0,v8
 45e:	02047527          	vse64.v	v10,(s0)
 462:	0209f527          	vse64.v	v10,(s3)
 466:	020a7527          	vse64.v	v10,(s4)
 46a:	020af527          	vse64.v	v10,(s5)
 46e:	6014                	ld	a3,0(s0)
 470:	00000537          	lui	a0,0x0
 474:	00050493          	mv	s1,a0
 478:	8526                	mv	a0,s1
 47a:	4581                	li	a1,0
 47c:	4601                	li	a2,0
 47e:	00000097          	auipc	ra,0x0
 482:	000080e7          	jalr	ra # 47e <main+0x15c>
 486:	7014                	ld	a3,32(s0)
 488:	4605                	li	a2,1
 48a:	8526                	mv	a0,s1
 48c:	4581                	li	a1,0
 48e:	00000097          	auipc	ra,0x0
 492:	000080e7          	jalr	ra # 48e <main+0x16c>
 496:	6034                	ld	a3,64(s0)
 498:	4609                	li	a2,2
 49a:	8526                	mv	a0,s1
 49c:	4581                	li	a1,0
 49e:	00000097          	auipc	ra,0x0
 4a2:	000080e7          	jalr	ra # 49e <main+0x17c>
 4a6:	7034                	ld	a3,96(s0)
 4a8:	460d                	li	a2,3
 4aa:	8526                	mv	a0,s1
 4ac:	4581                	li	a1,0
 4ae:	00000097          	auipc	ra,0x0
 4b2:	000080e7          	jalr	ra # 4ae <main+0x18c>
 4b6:	6414                	ld	a3,8(s0)
 4b8:	4585                	li	a1,1
 4ba:	8526                	mv	a0,s1
 4bc:	4601                	li	a2,0
 4be:	00000097          	auipc	ra,0x0
 4c2:	000080e7          	jalr	ra # 4be <main+0x19c>
 4c6:	7414                	ld	a3,40(s0)
 4c8:	4585                	li	a1,1
 4ca:	4605                	li	a2,1
 4cc:	8526                	mv	a0,s1
 4ce:	00000097          	auipc	ra,0x0
 4d2:	000080e7          	jalr	ra # 4ce <main+0x1ac>
 4d6:	6434                	ld	a3,72(s0)
 4d8:	4585                	li	a1,1
 4da:	4609                	li	a2,2
 4dc:	8526                	mv	a0,s1
 4de:	00000097          	auipc	ra,0x0
 4e2:	000080e7          	jalr	ra # 4de <main+0x1bc>
 4e6:	7434                	ld	a3,104(s0)
 4e8:	4585                	li	a1,1
 4ea:	460d                	li	a2,3
 4ec:	8526                	mv	a0,s1
 4ee:	00000097          	auipc	ra,0x0
 4f2:	000080e7          	jalr	ra # 4ee <main+0x1cc>
 4f6:	6814                	ld	a3,16(s0)
 4f8:	4589                	li	a1,2
 4fa:	8526                	mv	a0,s1
 4fc:	4601                	li	a2,0
 4fe:	00000097          	auipc	ra,0x0
 502:	000080e7          	jalr	ra # 4fe <main+0x1dc>
 506:	7814                	ld	a3,48(s0)
 508:	4589                	li	a1,2
 50a:	4605                	li	a2,1
 50c:	8526                	mv	a0,s1
 50e:	00000097          	auipc	ra,0x0
 512:	000080e7          	jalr	ra # 50e <main+0x1ec>
 516:	6834                	ld	a3,80(s0)
 518:	4589                	li	a1,2
 51a:	4609                	li	a2,2
 51c:	8526                	mv	a0,s1
 51e:	00000097          	auipc	ra,0x0
 522:	000080e7          	jalr	ra # 51e <main+0x1fc>
 526:	7834                	ld	a3,112(s0)
 528:	4589                	li	a1,2
 52a:	460d                	li	a2,3
 52c:	8526                	mv	a0,s1
 52e:	00000097          	auipc	ra,0x0
 532:	000080e7          	jalr	ra # 52e <main+0x20c>
 536:	6c14                	ld	a3,24(s0)
 538:	458d                	li	a1,3
 53a:	8526                	mv	a0,s1
 53c:	4601                	li	a2,0
 53e:	00000097          	auipc	ra,0x0
 542:	000080e7          	jalr	ra # 53e <main+0x21c>
 546:	7c14                	ld	a3,56(s0)
 548:	458d                	li	a1,3
 54a:	4605                	li	a2,1
 54c:	8526                	mv	a0,s1
 54e:	00000097          	auipc	ra,0x0
 552:	000080e7          	jalr	ra # 54e <main+0x22c>
 556:	6c34                	ld	a3,88(s0)
 558:	458d                	li	a1,3
 55a:	4609                	li	a2,2
 55c:	8526                	mv	a0,s1
 55e:	00000097          	auipc	ra,0x0
 562:	000080e7          	jalr	ra # 55e <main+0x23c>
 566:	7c34                	ld	a3,120(s0)
 568:	458d                	li	a1,3
 56a:	460d                	li	a2,3
 56c:	8526                	mv	a0,s1
 56e:	00000097          	auipc	ra,0x0
 572:	000080e7          	jalr	ra # 56e <main+0x24c>
 576:	4501                	li	a0,0
 578:	c22025f3          	csrr	a1,vlenb
 57c:	0586                	slli	a1,a1,0x1
 57e:	912e                	add	sp,sp,a1
 580:	60e6                	ld	ra,88(sp)
 582:	6446                	ld	s0,80(sp)
 584:	64a6                	ld	s1,72(sp)
 586:	6906                	ld	s2,64(sp)
 588:	79e2                	ld	s3,56(sp)
 58a:	7a42                	ld	s4,48(sp)
 58c:	7aa2                	ld	s5,40(sp)
 58e:	7b02                	ld	s6,32(sp)
 590:	2462                	fld	fs0,24(sp)
 592:	6125                	addi	sp,sp,96
 594:	8082                	ret
