
vector_test.o:     file format elf64-littleriscv


Disassembly of section .text:

0000000000000000 <main>:
   0:	d4010113          	addi	sp,sp,-704
   4:	2a113c23          	sd	ra,696(sp)
   8:	2a813823          	sd	s0,688(sp)
   c:	2a913423          	sd	s1,680(sp)
  10:	2b213023          	sd	s2,672(sp)
  14:	29313c23          	sd	s3,664(sp)
  18:	29413823          	sd	s4,656(sp)
  1c:	29513423          	sd	s5,648(sp)
  20:	29613023          	sd	s6,640(sp)
  24:	27713c23          	sd	s7,632(sp)
  28:	c4847057          	vsetivli	zero,8,e16,m1,ta,mu
  2c:	5208a457          	vid.v	v8 // インデックスを作成 v8 = <0,1,2,3,4,5,6,7>
  30:	1b08                	addi	a0,sp,432 
  32:	02055427          	vse16.v	v8,(a0)
  36:	028404d7          	vadd.vv	v9,v8,v8 // v9 = <0,2,4,6,8,10,12,14>
  3a:	1188                	addi	a0,sp,224
  3c:	020554a7          	vse16.v	v9,(a0)
  40:	0394                	addi	a3,sp,448
  42:	00000537          	lui	a0,0x0
  46:	00050513          	mv	a0,a0
  4a:	02055487          	vle16.v	v9,(a0)
  4e:	02843457          	vadd.vi	v8,v8,8 // v8  = <8,9,10,11,12,13,14,15>
  52:	0206d427          	vse16.v	v8,(a3)
  56:	1980                	addi	s0,sp,240
  58:	020454a7          	vse16.v	v9,(s0) // v9 = <0,2,4,6,8,10,12,14>のまま,STORE
  5c:	00000537          	lui	a0,0x0
  60:	00050513          	mv	a0,a0
  64:	02055407          	vle16.v	v8,(a0)
  68:	00000537          	lui	a0,0x0
  6c:	00050513          	mv	a0,a0
  70:	02055487          	vle16.v	v9,(a0)
  74:	1d010813          	addi	a6,sp,464
  78:	02085427          	vse16.v	v8,(a6)
  7c:	10010893          	addi	a7,sp,256
  80:	0208d4a7          	vse16.v	v9,(a7)
  84:	00000537          	lui	a0,0x0
  88:	00050513          	mv	a0,a0
  8c:	02055407          	vle16.v	v8,(a0)
  90:	00000537          	lui	a0,0x0
  94:	00050513          	mv	a0,a0
  98:	02055487          	vle16.v	v9,(a0)
  9c:	1e010293          	addi	t0,sp,480
  a0:	0202d427          	vse16.v	v8,(t0)
  a4:	11010313          	addi	t1,sp,272
  a8:	020354a7          	vse16.v	v9,(t1)
  ac:	00000537          	lui	a0,0x0
  b0:	00050513          	mv	a0,a0
  b4:	02055407          	vle16.v	v8,(a0)
  b8:	00000537          	lui	a0,0x0
  bc:	00050513          	mv	a0,a0
  c0:	02055487          	vle16.v	v9,(a0)
  c4:	1f010393          	addi	t2,sp,496
  c8:	0203d427          	vse16.v	v8,(t2)
  cc:	12010e13          	addi	t3,sp,288
  d0:	020e54a7          	vse16.v	v9,(t3)
  d4:	00000537          	lui	a0,0x0
  d8:	00050513          	mv	a0,a0
  dc:	02055407          	vle16.v	v8,(a0)
  e0:	00000537          	lui	a0,0x0
  e4:	00050513          	mv	a0,a0
  e8:	02055487          	vle16.v	v9,(a0)
  ec:	20010e93          	addi	t4,sp,512
  f0:	020ed427          	vse16.v	v8,(t4)
  f4:	13010f13          	addi	t5,sp,304
  f8:	020f54a7          	vse16.v	v9,(t5)
  fc:	00000537          	lui	a0,0x0
 100:	00050513          	mv	a0,a0
 104:	02055407          	vle16.v	v8,(a0)
 108:	00000537          	lui	a0,0x0
 10c:	00050513          	mv	a0,a0
 110:	02055487          	vle16.v	v9,(a0)
 114:	21010f93          	addi	t6,sp,528
 118:	020fd427          	vse16.v	v8,(t6)
 11c:	14010913          	addi	s2,sp,320
 120:	020954a7          	vse16.v	v9,(s2)
 124:	00000537          	lui	a0,0x0
 128:	00050513          	mv	a0,a0
 12c:	02055407          	vle16.v	v8,(a0)
 130:	00000537          	lui	a0,0x0
 134:	00050513          	mv	a0,a0
 138:	02055487          	vle16.v	v9,(a0)
 13c:	22010993          	addi	s3,sp,544
 140:	0209d427          	vse16.v	v8,(s3)
 144:	15010a13          	addi	s4,sp,336
 148:	020a54a7          	vse16.v	v9,(s4)
 14c:	00000537          	lui	a0,0x0
 150:	00050513          	mv	a0,a0
 154:	02055407          	vle16.v	v8,(a0)
 158:	00000537          	lui	a0,0x0
 15c:	00050513          	mv	a0,a0
 160:	02055487          	vle16.v	v9,(a0)
 164:	23010a93          	addi	s5,sp,560
 168:	020ad427          	vse16.v	v8,(s5)
 16c:	16010b13          	addi	s6,sp,352
 170:	020b54a7          	vse16.v	v9,(s6)
 174:	00000537          	lui	a0,0x0
 178:	00050513          	mv	a0,a0
 17c:	02055407          	vle16.v	v8,(a0)
 180:	00000537          	lui	a0,0x0
 184:	00050513          	mv	a0,a0
 188:	02055487          	vle16.v	v9,(a0)
 18c:	24010b93          	addi	s7,sp,576
 190:	020bd427          	vse16.v	v8,(s7)
 194:	1a8c                	addi	a1,sp,368
 196:	0205d4a7          	vse16.v	v9,(a1)
 19a:	00000537          	lui	a0,0x0
 19e:	00050513          	mv	a0,a0
 1a2:	02055407          	vle16.v	v8,(a0)
 1a6:	00000537          	lui	a0,0x0
 1aa:	00050513          	mv	a0,a0
 1ae:	02055487          	vle16.v	v9,(a0)
 1b2:	0c88                	addi	a0,sp,592
 1b4:	02055427          	vse16.v	v8,(a0)
 1b8:	0310                	addi	a2,sp,384
 1ba:	020654a7          	vse16.v	v9,(a2)
 1be:	00000737          	lui	a4,0x0
 1c2:	00070713          	mv	a4,a4
 1c6:	02075407          	vle16.v	v8,(a4)
 1ca:	00000737          	lui	a4,0x0
 1ce:	00070713          	mv	a4,a4
 1d2:	02075487          	vle16.v	v9,(a4)
 1d6:	1498                	addi	a4,sp,608
 1d8:	02075427          	vse16.v	v8,(a4)
 1dc:	0b1c                	addi	a5,sp,400
 1de:	0207d4a7          	vse16.v	v9,(a5)
 1e2:	06000493          	li	s1,96 // 以下で0~95という8の倍数に収まらなかった部分の即値のLOADをしている。
 1e6:	26911823          	sh	s1,624(sp)
 1ea:	0c000493          	li	s1,192
 1ee:	1a911023          	sh	s1,416(sp)
 1f2:	06100493          	li	s1,97
 1f6:	26911923          	sh	s1,626(sp)
 1fa:	0c200493          	li	s1,194
 1fe:	1a911123          	sh	s1,418(sp)
 202:	06200493          	li	s1,98
 206:	26911a23          	sh	s1,628(sp)
 20a:	0c400493          	li	s1,196
 20e:	1a911223          	sh	s1,420(sp)
 212:	06300493          	li	s1,99
 216:	26911b23          	sh	s1,630(sp)
 21a:	0c600493          	li	s1,198
 21e:	1a911323          	sh	s1,422(sp)
 222:	1b04                	addi	s1,sp,432 // ここからはロードしては8個同時に足してSTOREするということを12回繰り返している。
 224:	0204d407          	vle16.v	v8,(s1)
 228:	1184                	addi	s1,sp,224
 22a:	0204d487          	vle16.v	v9,(s1)
 22e:	0206d507          	vle16.v	v10,(a3)
 232:	02045587          	vle16.v	v11,(s0)
 236:	4481                	li	s1,0
 238:	02940457          	vadd.vv	v8,v9,v8
 23c:	0814                	addi	a3,sp,16
 23e:	0206d427          	vse16.v	v8,(a3)
 242:	02b50457          	vadd.vv	v8,v11,v10
 246:	1014                	addi	a3,sp,32
 248:	02085487          	vle16.v	v9,(a6)
 24c:	0208d507          	vle16.v	v10,(a7)
 250:	0206d427          	vse16.v	v8,(a3)
 254:	0202d407          	vle16.v	v8,(t0)
 258:	02035587          	vle16.v	v11,(t1)
 25c:	02a484d7          	vadd.vv	v9,v10,v9
 260:	1814                	addi	a3,sp,48
 262:	0206d4a7          	vse16.v	v9,(a3)
 266:	02b40457          	vadd.vv	v8,v11,v8
 26a:	0094                	addi	a3,sp,64
 26c:	0203d487          	vle16.v	v9,(t2)
 270:	020e5507          	vle16.v	v10,(t3)
 274:	0206d427          	vse16.v	v8,(a3)
 278:	020ed407          	vle16.v	v8,(t4)
 27c:	020f5587          	vle16.v	v11,(t5)
 280:	02a484d7          	vadd.vv	v9,v10,v9
 284:	0894                	addi	a3,sp,80
 286:	0206d4a7          	vse16.v	v9,(a3)
 28a:	02b40457          	vadd.vv	v8,v11,v8
 28e:	1094                	addi	a3,sp,96
 290:	020fd487          	vle16.v	v9,(t6)
 294:	02095507          	vle16.v	v10,(s2)
 298:	0206d427          	vse16.v	v8,(a3)
 29c:	0209d407          	vle16.v	v8,(s3)
 2a0:	020a5587          	vle16.v	v11,(s4)
 2a4:	02a484d7          	vadd.vv	v9,v10,v9
 2a8:	1894                	addi	a3,sp,112
 2aa:	0206d4a7          	vse16.v	v9,(a3)
 2ae:	02b40457          	vadd.vv	v8,v11,v8
 2b2:	0114                	addi	a3,sp,128
 2b4:	020ad487          	vle16.v	v9,(s5)
 2b8:	020b5507          	vle16.v	v10,(s6)
 2bc:	0206d427          	vse16.v	v8,(a3)
 2c0:	020bd407          	vle16.v	v8,(s7)
 2c4:	0205d587          	vle16.v	v11,(a1)
 2c8:	02a484d7          	vadd.vv	v9,v10,v9
 2cc:	090c                	addi	a1,sp,144
 2ce:	0205d4a7          	vse16.v	v9,(a1)
 2d2:	02b40457          	vadd.vv	v8,v11,v8
 2d6:	110c                	addi	a1,sp,160
 2d8:	02055487          	vle16.v	v9,(a0)
 2dc:	02065507          	vle16.v	v10,(a2)
 2e0:	0205d427          	vse16.v	v8,(a1)
 2e4:	02075407          	vle16.v	v8,(a4)
 2e8:	0207d587          	vle16.v	v11,(a5)
 2ec:	02a484d7          	vadd.vv	v9,v10,v9
 2f0:	1908                	addi	a0,sp,176
 2f2:	020554a7          	vse16.v	v9,(a0)
 2f6:	02b40457          	vadd.vv	v8,v11,v8
 2fa:	0188                	addi	a0,sp,192
 2fc:	27011583          	lh	a1,624(sp)
 300:	1a011603          	lh	a2,416(sp)
 304:	27211683          	lh	a3,626(sp)
 308:	1a211703          	lh	a4,418(sp)
 30c:	02055427          	vse16.v	v8,(a0)
 // ここからもわかるようにベクトル計算できない余りの部分は普通のレジスタを使ってスカラ計算している。
 // 16bit型のデータもaddwで計算している
 310:	00b6053b          	addw	a0,a2,a1 // 使わなかったbitは符号拡張する
 314:	0ca11823          	sh	a0,208(sp)
 318:	00d7053b          	addw	a0,a4,a3
 31c:	27411583          	lh	a1,628(sp)
 320:	1a411603          	lh	a2,420(sp)
 324:	27611683          	lh	a3,630(sp)
 328:	1a611703          	lh	a4,422(sp)
 32c:	0ca11923          	sh	a0,210(sp)
 330:	00b6053b          	addw	a0,a2,a1
 334:	0ca11a23          	sh	a0,212(sp)
 338:	00d7053b          	addw	a0,a4,a3
 33c:	0ca11b23          	sh	a0,214(sp)
 340:	01010913          	addi	s2,sp,16
 344:	00000537          	lui	a0,0x0
 348:	00050413          	mv	s0,a0
 34c:	0c800993          	li	s3,200
 350:	00990533          	add	a0,s2,s1
 354:	00051583          	lh	a1,0(a0) # 0 <main>
 358:	8522                	mv	a0,s0
 35a:	00000097          	auipc	ra,0x0
 35e:	000080e7          	jalr	ra # 35a <main+0x35a>
 362:	0489                	addi	s1,s1,2
 364:	ff3496e3          	bne	s1,s3,350 <main+0x350>
 368:	4501                	li	a0,0
 36a:	2b813083          	ld	ra,696(sp)
 36e:	2b013403          	ld	s0,688(sp)
 372:	2a813483          	ld	s1,680(sp)
 376:	2a013903          	ld	s2,672(sp)
 37a:	29813983          	ld	s3,664(sp)
 37e:	29013a03          	ld	s4,656(sp)
 382:	28813a83          	ld	s5,648(sp)
 386:	28013b03          	ld	s6,640(sp)
 38a:	27813b83          	ld	s7,632(sp)
 38e:	2c010113          	addi	sp,sp,704
 392:	8082                	ret
